; Function Attrs: nounwind uwtable
define internal void @dt_camera_import_cleanup(ptr noundef captures(none) %0) #0 {
  %2 = getelementptr inbounds nuw i8, ptr %0, i64 8
  %3 = load ptr, ptr %2, align 8, !tbaa !66
  tail call void @g_list_free(ptr noundef %3) #10
  %4 = load ptr, ptr %0, align 8, !tbaa !61
  tail call void @dt_import_session_destroy(ptr noundef %4) #10
  %5 = getelementptr inbounds nuw i8, ptr %0, i64 16
  %6 = load ptr, ptr %5, align 8, !tbaa !81
  %7 = getelementptr inbounds nuw i8, ptr %6, i64 32976
  store i32 0, ptr %7, align 8, !tbaa !74
  tail call void @free(ptr noundef %0) #10
  ret void
}